#include <math.h>
#include <stdio.h>
#include <stdlib.h>
#include <string.h>

main()
{
	int a[16],n,i,j,k;
	while(1)
	{
		n=0;
		for(i=0;i<16;i++)
			a[i]=0;
		scanf("%d",&a[0]);
		if(a[0]==-1)
			break;
		else
		{
			for(i=1;i<16;i++)
			{
				scanf("%d",&a[i]);
				if(a[i]==0)
					break;
			}
			j=i;
			for(i=0;i<j-1;i++)
			{
				for(k=i+1;k<j;k++)
				{
					if(a[k]==2*a[i]||a[i]==2*a[k])
						n++;
				}
			}
			printf("%d\n",n);
		}
	}

}